target datalayout = "e-m:e-p270:32:32-p271:32:32-p272:64:64-i64:64-i128:128-f80:128-n8:16:32:64-S128"
target triple = "x86_64-pc-linux-gnu"

%struct._zend_array = type { %struct._zend_refcounted_h, %union.anon.1, i32, %union.anon.2, i32, i32, i32, i32, i64, ptr }
%struct._zend_refcounted_h = type { i32, %union.anon.0 }
%union.anon.0 = type { i32 }
%union.anon.1 = type { i32 }
%union.anon.2 = type { ptr }
%struct._zval_struct = type { %union._zend_value, %union.anon.9, %union.anon.12 }
%union._zend_value = type { i64 }
%union.anon.9 = type { i32 }
%union.anon.12 = type { i32 }
%struct._zend_op_array = type { i8, [3 x i8], i32, ptr, ptr, ptr, i32, i32, ptr, ptr, ptr, ptr, i32, ptr, i32, i32, i32, ptr, ptr, ptr, ptr, ptr, i32, i32, ptr, ptr, ptr, i32, i32, i32, i32, ptr, ptr, [6 x ptr] }
%struct.zend_type = type { ptr, i32 }
%struct._zend_string = type { %struct._zend_refcounted_h, i64, i64, [1 x i8] }
%struct._zend_class_entry = type { i8, ptr, %union.anon, i32, i32, i32, i32, ptr, ptr, ptr, %struct._zend_array, %struct._zend_array, %struct._zend_array, ptr, ptr, ptr, ptr, ptr, ptr, ptr, ptr, ptr, ptr, ptr, ptr, ptr, ptr, ptr, ptr, ptr, ptr, ptr, %union.anon.3, ptr, ptr, ptr, ptr, i32, i32, i32, i32, %union.anon.4, ptr, ptr, ptr, ptr, i32, ptr, ptr, %union.anon.5 }
%union.anon = type { ptr }
%union.anon.3 = type { ptr }
%union.anon.4 = type { ptr }
%union.anon.5 = type { %struct.anon.6 }
%struct.anon.6 = type { ptr, i32, i32 }
%struct._zend_property_info = type { i32, i32, ptr, ptr, ptr, ptr, %struct.zend_type, ptr, ptr }
%struct.anon.10 = type { i8, i8, %union.anon.11 }
%union.anon.11 = type { i16 }
%struct.anon.13 = type { i8, [3 x i8], i32, ptr, ptr, ptr, i32, i32, ptr, ptr, ptr, ptr, i32, ptr }

@.str.3 = private unnamed_addr constant [65 x i8] c"Cannot specify default value for virtual hooked property %s::$%s\00", align 1
@.str.4 = private unnamed_addr constant [77 x i8] c"Get hook of backed property %s::%s with set hook may not return by reference\00", align 1
@.str.5 = private unnamed_addr constant [66 x i8] c"Abstract property %s::$%s must specify at least one abstract hook\00", align 1
@.str.6 = private unnamed_addr constant [11 x i8] c"Write-only\00", align 1
@.str.7 = private unnamed_addr constant [10 x i8] c"Read-only\00", align 1
@.str.8 = private unnamed_addr constant [67 x i8] c"%s virtual property %s::$%s must not specify asymmetric visibility\00", align 1

; Function Attrs: alwaysinline nounwind uwtable
define internal zeroext i8 @zval_get_type(ptr noundef %0) #3 {
  %2 = alloca ptr, align 8
  store ptr %0, ptr %2, align 8, !tbaa !51
  %3 = load ptr, ptr %2, align 8, !tbaa !51
  %4 = getelementptr inbounds nuw %struct._zval_struct, ptr %3, i32 0, i32 1
  %5 = getelementptr inbounds nuw %struct.anon.10, ptr %4, i32 0, i32 0
  %6 = load i8, ptr %5, align 8, !tbaa !46
  ret i8 %6
}

; Function Attrs: nounwind uwtable
define dso_local void @zend_verify_hooked_property(ptr noundef %0, ptr noundef %1, ptr noundef %2) #0 {
  %4 = alloca ptr, align 8
  %5 = alloca ptr, align 8
  %6 = alloca ptr, align 8
  %7 = alloca i8, align 1
  %8 = alloca i32, align 4
  %9 = alloca ptr, align 8
  %10 = alloca ptr, align 8
  store ptr %0, ptr %4, align 8, !tbaa !8
  store ptr %1, ptr %5, align 8, !tbaa !52
  store ptr %2, ptr %6, align 8, !tbaa !19
  %11 = load ptr, ptr %5, align 8, !tbaa !52
  %12 = getelementptr inbounds nuw %struct._zend_property_info, ptr %11, i32 0, i32 8
  %13 = load ptr, ptr %12, align 8, !tbaa !69
  %14 = icmp ne ptr %13, null
  br i1 %14, label %16, label %15

15:                                               ; preds = %3
  br label %199

16:                                               ; preds = %3
  call void @llvm.lifetime.start.p0(i64 1, ptr %7) #19
  %17 = load ptr, ptr %5, align 8, !tbaa !52
  %18 = getelementptr inbounds nuw %struct._zend_property_info, ptr %17, i32 0, i32 1
  %19 = load i32, ptr %18, align 4, !tbaa !57
  %20 = and i32 %19, 64
  %21 = icmp ne i32 %20, 0
  %22 = zext i1 %21 to i8
  store i8 %22, ptr %7, align 1, !tbaa !13
  %23 = load ptr, ptr %5, align 8, !tbaa !52
  %24 = getelementptr inbounds nuw %struct._zend_property_info, ptr %23, i32 0, i32 1
  %25 = load i32, ptr %24, align 4, !tbaa !57
  %26 = and i32 %25, 512
  %27 = icmp ne i32 %26, 0
  br i1 %27, label %28, label %42

28:                                               ; preds = %16
  %29 = load ptr, ptr %5, align 8, !tbaa !52
  %30 = getelementptr inbounds nuw %struct._zend_property_info, ptr %29, i32 0, i32 0
  %31 = load i32, ptr %30, align 8, !tbaa !58
  %32 = icmp ne i32 %31, -1
  br i1 %32, label %33, label %42

33:                                               ; preds = %28
  %34 = load ptr, ptr %4, align 8, !tbaa !8
  %35 = getelementptr inbounds nuw %struct._zend_class_entry, ptr %34, i32 0, i32 1
  %36 = load ptr, ptr %35, align 8, !tbaa !70
  %37 = getelementptr inbounds nuw %struct._zend_string, ptr %36, i32 0, i32 3
  %38 = getelementptr inbounds [1 x i8], ptr %37, i64 0, i64 0
  %39 = load ptr, ptr %6, align 8, !tbaa !19
  %40 = getelementptr inbounds nuw %struct._zend_string, ptr %39, i32 0, i32 3
  %41 = getelementptr inbounds [1 x i8], ptr %40, i64 0, i64 0
  call void (i32, ptr, ...) @zend_error_noreturn(i32 noundef 64, ptr noundef @.str.3, ptr noundef %38, ptr noundef %41) #21
  unreachable

42:                                               ; preds = %28, %16
  %43 = load ptr, ptr %5, align 8, !tbaa !52
  %44 = getelementptr inbounds nuw %struct._zend_property_info, ptr %43, i32 0, i32 1
  %45 = load i32, ptr %44, align 4, !tbaa !57
  %46 = and i32 %45, 512
  %47 = icmp ne i32 %46, 0
  br i1 %47, label %84, label %48

48:                                               ; preds = %42
  %49 = load ptr, ptr %5, align 8, !tbaa !52
  %50 = getelementptr inbounds nuw %struct._zend_property_info, ptr %49, i32 0, i32 6
  %51 = getelementptr inbounds nuw %struct.zend_type, ptr %50, i32 0, i32 1
  %52 = load i32, ptr %51, align 8, !tbaa !71
  %53 = and i32 %52, 33554431
  %54 = icmp ne i32 %53, 0
  br i1 %54, label %84, label %55

55:                                               ; preds = %48
  %56 = load ptr, ptr %4, align 8, !tbaa !8
  %57 = getelementptr inbounds nuw %struct._zend_class_entry, ptr %56, i32 0, i32 7
  %58 = load ptr, ptr %57, align 8, !tbaa !72
  %59 = load ptr, ptr %5, align 8, !tbaa !52
  %60 = getelementptr inbounds nuw %struct._zend_property_info, ptr %59, i32 0, i32 0
  %61 = load i32, ptr %60, align 8, !tbaa !58
  %62 = sub i32 %61, 40
  %63 = zext i32 %62 to i64
  %64 = udiv i64 %63, 16
  %65 = getelementptr inbounds nuw %struct._zval_struct, ptr %58, i64 %64
  %66 = call zeroext i8 @zval_get_type(ptr noundef %65)
  %67 = zext i8 %66 to i32
  %68 = icmp eq i32 %67, 0
  br i1 %68, label %69, label %84

69:                                               ; preds = %55
  br label %70

70:                                               ; preds = %69
  %71 = load ptr, ptr %4, align 8, !tbaa !8
  %72 = getelementptr inbounds nuw %struct._zend_class_entry, ptr %71, i32 0, i32 7
  %73 = load ptr, ptr %72, align 8, !tbaa !72
  %74 = load ptr, ptr %5, align 8, !tbaa !52
  %75 = getelementptr inbounds nuw %struct._zend_property_info, ptr %74, i32 0, i32 0
  %76 = load i32, ptr %75, align 8, !tbaa !58
  %77 = sub i32 %76, 40
  %78 = zext i32 %77 to i64
  %79 = udiv i64 %78, 16
  %80 = getelementptr inbounds nuw %struct._zval_struct, ptr %73, i64 %79
  %81 = getelementptr inbounds nuw %struct._zval_struct, ptr %80, i32 0, i32 1
  store i32 1, ptr %81, align 8, !tbaa !46
  br label %82

82:                                               ; preds = %70
  br label %83

83:                                               ; preds = %82
  br label %84

84:                                               ; preds = %83, %55, %48, %42
  call void @llvm.lifetime.start.p0(i64 4, ptr %8) #19
  store i32 0, ptr %8, align 4, !tbaa !4
  br label %85

85:                                               ; preds = %139, %84
  %86 = load i32, ptr %8, align 4, !tbaa !4
  %87 = icmp ult i32 %86, 2
  br i1 %87, label %89, label %88

88:                                               ; preds = %85
  call void @llvm.lifetime.end.p0(i64 4, ptr %8) #19
  br label %142

89:                                               ; preds = %85
  call void @llvm.lifetime.start.p0(i64 8, ptr %9) #19
  %90 = load ptr, ptr %5, align 8, !tbaa !52
  %91 = getelementptr inbounds nuw %struct._zend_property_info, ptr %90, i32 0, i32 8
  %92 = load ptr, ptr %91, align 8, !tbaa !69
  %93 = load i32, ptr %8, align 4, !tbaa !4
  %94 = zext i32 %93 to i64
  %95 = getelementptr inbounds nuw ptr, ptr %92, i64 %94
  %96 = load ptr, ptr %95, align 8, !tbaa !73
  store ptr %96, ptr %9, align 8, !tbaa !73
  %97 = load ptr, ptr %9, align 8, !tbaa !73
  %98 = icmp ne ptr %97, null
  br i1 %98, label %99, label %138

99:                                               ; preds = %89
  %100 = load i32, ptr %8, align 4, !tbaa !4
  %101 = icmp eq i32 %100, 0
  br i1 %101, label %102, label %130

102:                                              ; preds = %99
  %103 = load ptr, ptr %9, align 8, !tbaa !73
  %104 = getelementptr inbounds nuw %struct._zend_op_array, ptr %103, i32 0, i32 2
  %105 = load i32, ptr %104, align 4, !tbaa !46
  %106 = and i32 %105, 4096
  %107 = icmp ne i32 %106, 0
  br i1 %107, label %108, label %130

108:                                              ; preds = %102
  %109 = load ptr, ptr %5, align 8, !tbaa !52
  %110 = getelementptr inbounds nuw %struct._zend_property_info, ptr %109, i32 0, i32 1
  %111 = load i32, ptr %110, align 4, !tbaa !57
  %112 = and i32 %111, 512
  %113 = icmp ne i32 %112, 0
  br i1 %113, label %130, label %114

114:                                              ; preds = %108
  %115 = load ptr, ptr %5, align 8, !tbaa !52
  %116 = getelementptr inbounds nuw %struct._zend_property_info, ptr %115, i32 0, i32 8
  %117 = load ptr, ptr %116, align 8, !tbaa !69
  %118 = getelementptr inbounds ptr, ptr %117, i64 1
  %119 = load ptr, ptr %118, align 8, !tbaa !73
  %120 = icmp ne ptr %119, null
  br i1 %120, label %121, label %130

121:                                              ; preds = %114
  %122 = load ptr, ptr %4, align 8, !tbaa !8
  %123 = getelementptr inbounds nuw %struct._zend_class_entry, ptr %122, i32 0, i32 1
  %124 = load ptr, ptr %123, align 8, !tbaa !70
  %125 = getelementptr inbounds nuw %struct._zend_string, ptr %124, i32 0, i32 3
  %126 = getelementptr inbounds [1 x i8], ptr %125, i64 0, i64 0
  %127 = load ptr, ptr %6, align 8, !tbaa !19
  %128 = getelementptr inbounds nuw %struct._zend_string, ptr %127, i32 0, i32 3
  %129 = getelementptr inbounds [1 x i8], ptr %128, i64 0, i64 0
  call void (i32, ptr, ...) @zend_error_noreturn(i32 noundef 64, ptr noundef @.str.4, ptr noundef %126, ptr noundef %129) #21
  unreachable

130:                                              ; preds = %114, %108, %102, %99
  %131 = load ptr, ptr %9, align 8, !tbaa !73
  %132 = getelementptr inbounds nuw %struct.anon.13, ptr %131, i32 0, i32 2
  %133 = load i32, ptr %132, align 4, !tbaa !46
  %134 = and i32 %133, 64
  %135 = icmp ne i32 %134, 0
  br i1 %135, label %136, label %137

136:                                              ; preds = %130
  store i8 0, ptr %7, align 1, !tbaa !13
  br label %137

137:                                              ; preds = %136, %130
  br label %138

138:                                              ; preds = %137, %89
  call void @llvm.lifetime.end.p0(i64 8, ptr %9) #19
  br label %139

139:                                              ; preds = %138
  %140 = load i32, ptr %8, align 4, !tbaa !4
  %141 = add i32 %140, 1
  store i32 %141, ptr %8, align 4, !tbaa !4
  br label %85

142:                                              ; preds = %88
  %143 = load i8, ptr %7, align 1, !tbaa !13, !range !21, !noundef !22
  %144 = trunc i8 %143 to i1
  br i1 %144, label %145, label %154

145:                                              ; preds = %142
  %146 = load ptr, ptr %4, align 8, !tbaa !8
  %147 = getelementptr inbounds nuw %struct._zend_class_entry, ptr %146, i32 0, i32 1
  %148 = load ptr, ptr %147, align 8, !tbaa !70
  %149 = getelementptr inbounds nuw %struct._zend_string, ptr %148, i32 0, i32 3
  %150 = getelementptr inbounds [1 x i8], ptr %149, i64 0, i64 0
  %151 = load ptr, ptr %6, align 8, !tbaa !19
  %152 = getelementptr inbounds nuw %struct._zend_string, ptr %151, i32 0, i32 3
  %153 = getelementptr inbounds [1 x i8], ptr %152, i64 0, i64 0
  call void (i32, ptr, ...) @zend_error_noreturn(i32 noundef 64, ptr noundef @.str.5, ptr noundef %150, ptr noundef %153) #21
  unreachable

154:                                              ; preds = %142
  %155 = load ptr, ptr %5, align 8, !tbaa !52
  %156 = getelementptr inbounds nuw %struct._zend_property_info, ptr %155, i32 0, i32 1
  %157 = load i32, ptr %156, align 4, !tbaa !57
  %158 = and i32 %157, 512
  %159 = icmp ne i32 %158, 0
  br i1 %159, label %160, label %198

160:                                              ; preds = %154
  %161 = load ptr, ptr %5, align 8, !tbaa !52
  %162 = getelementptr inbounds nuw %struct._zend_property_info, ptr %161, i32 0, i32 1
  %163 = load i32, ptr %162, align 4, !tbaa !57
  %164 = and i32 %163, 7168
  %165 = icmp ne i32 %164, 0
  br i1 %165, label %166, label %198

166:                                              ; preds = %160
  %167 = load ptr, ptr %5, align 8, !tbaa !52
  %168 = getelementptr inbounds nuw %struct._zend_property_info, ptr %167, i32 0, i32 8
  %169 = load ptr, ptr %168, align 8, !tbaa !69
  %170 = getelementptr inbounds ptr, ptr %169, i64 0
  %171 = load ptr, ptr %170, align 8, !tbaa !73
  %172 = icmp ne ptr %171, null
  br i1 %172, label %173, label %180

173:                                              ; preds = %166
  %174 = load ptr, ptr %5, align 8, !tbaa !52
  %175 = getelementptr inbounds nuw %struct._zend_property_info, ptr %174, i32 0, i32 8
  %176 = load ptr, ptr %175, align 8, !tbaa !69
  %177 = getelementptr inbounds ptr, ptr %176, i64 1
  %178 = load ptr, ptr %177, align 8, !tbaa !73
  %179 = icmp ne ptr %178, null
  br i1 %179, label %198, label %180

180:                                              ; preds = %173, %166
  call void @llvm.lifetime.start.p0(i64 8, ptr %10) #19
  %181 = load ptr, ptr %5, align 8, !tbaa !52
  %182 = getelementptr inbounds nuw %struct._zend_property_info, ptr %181, i32 0, i32 8
  %183 = load ptr, ptr %182, align 8, !tbaa !69
  %184 = getelementptr inbounds ptr, ptr %183, i64 0
  %185 = load ptr, ptr %184, align 8, !tbaa !73
  %186 = icmp ne ptr %185, null
  %187 = xor i1 %186, true
  %188 = select i1 %187, ptr @.str.6, ptr @.str.7
  store ptr %188, ptr %10, align 8, !tbaa !66
  %189 = load ptr, ptr %10, align 8, !tbaa !66
  %190 = load ptr, ptr %4, align 8, !tbaa !8
  %191 = getelementptr inbounds nuw %struct._zend_class_entry, ptr %190, i32 0, i32 1
  %192 = load ptr, ptr %191, align 8, !tbaa !70
  %193 = getelementptr inbounds nuw %struct._zend_string, ptr %192, i32 0, i32 3
  %194 = getelementptr inbounds [1 x i8], ptr %193, i64 0, i64 0
  %195 = load ptr, ptr %6, align 8, !tbaa !19
  %196 = getelementptr inbounds nuw %struct._zend_string, ptr %195, i32 0, i32 3
  %197 = getelementptr inbounds [1 x i8], ptr %196, i64 0, i64 0
  call void (i32, ptr, ...) @zend_error_noreturn(i32 noundef 64, ptr noundef @.str.8, ptr noundef %189, ptr noundef %194, ptr noundef %197) #21
  unreachable

198:                                              ; preds = %173, %160, %154
  call void @llvm.lifetime.end.p0(i64 1, ptr %7) #19
  br label %199

199:                                              ; preds = %198, %15
  ret void
}