; Function Attrs: nounwind uwtable
define dso_local void @zend_verify_hooked_property(ptr noundef readonly captures(none) %0, ptr noundef readonly captures(none) %1, ptr noundef %2) local_unnamed_addr #2 {
  %4 = getelementptr inbounds nuw i8, ptr %1, i64 64
  %5 = load ptr, ptr %4, align 8, !tbaa !105
  %.not = icmp eq ptr %5, null
  br i1 %.not, label %79, label %6

6:                                                ; preds = %3
  %7 = getelementptr inbounds nuw i8, ptr %1, i64 4
  %8 = load i32, ptr %7, align 4, !tbaa !102
  %9 = trunc i32 %8 to i8
  %10 = lshr i8 %9, 6
  %11 = and i32 %8, 512
  %.not36 = icmp eq i32 %11, 0
  br i1 %.not36, label %19, label %12

12:                                               ; preds = %6
  %13 = load i32, ptr %1, align 8, !tbaa !103
  %.not37 = icmp eq i32 %13, -1
  br i1 %.not37, label %34, label %14

14:                                               ; preds = %12
  %15 = getelementptr inbounds nuw i8, ptr %0, i64 8
  %16 = load ptr, ptr %15, align 8, !tbaa !37
  %17 = getelementptr inbounds nuw i8, ptr %16, i64 24
  %18 = getelementptr inbounds nuw i8, ptr %2, i64 24
  tail call void (i32, ptr, ...) @zend_error_noreturn(i32 noundef 64, ptr noundef nonnull @.str.3, ptr noundef nonnull %17, ptr noundef nonnull %18) #19
  unreachable

19:                                               ; preds = %6
  %20 = getelementptr inbounds nuw i8, ptr %1, i64 48
  %21 = load i32, ptr %20, align 8, !tbaa !106
  %22 = and i32 %21, 33554431
  %.not39 = icmp eq i32 %22, 0
  br i1 %.not39, label %23, label %34

23:                                               ; preds = %19
  %24 = getelementptr inbounds nuw i8, ptr %0, i64 40
  %25 = load ptr, ptr %24, align 8, !tbaa !107
  %26 = load i32, ptr %1, align 8, !tbaa !103
  %27 = add i32 %26, -40
  %28 = lshr i32 %27, 4
  %29 = zext nneg i32 %28 to i64
  %30 = getelementptr inbounds nuw %struct._zval_struct, ptr %25, i64 %29, i32 1
  %31 = load i8, ptr %30, align 8, !tbaa !21
  %32 = icmp eq i8 %31, 0
  br i1 %32, label %33, label %34

33:                                               ; preds = %23
  store i32 1, ptr %30, align 8, !tbaa !21
  %.pre = load ptr, ptr %4, align 8, !tbaa !105
  br label %34

34:                                               ; preds = %12, %33, %23, %19
  %35 = phi ptr [ %5, %12 ], [ %.pre, %33 ], [ %5, %23 ], [ %5, %19 ]
  %36 = getelementptr inbounds nuw i8, ptr %35, i64 8
  br label %39

37:                                               ; preds = %59
  %38 = trunc i8 %.1 to i1
  br i1 %38, label %60, label %65

39:                                               ; preds = %34, %59
  %40 = phi i1 [ false, %34 ], [ true, %59 ]
  %41 = phi i1 [ true, %34 ], [ false, %59 ]
  %indvars.iv = phi i64 [ 0, %34 ], [ 1, %59 ]
  %.052 = phi i8 [ %10, %34 ], [ %.1, %59 ]
  %42 = getelementptr inbounds nuw ptr, ptr %35, i64 %indvars.iv
  %43 = load ptr, ptr %42, align 8, !tbaa !108
  %.not45 = icmp eq ptr %43, null
  br i1 %.not45, label %59, label %44

44:                                               ; preds = %39
  %45 = getelementptr inbounds nuw i8, ptr %43, i64 4
  %46 = load i32, ptr %45, align 4, !tbaa !21
  %47 = and i32 %46, 4096
  %.not46 = icmp eq i32 %47, 0
  %or.cond54 = select i1 %40, i1 true, i1 %.not46
  br i1 %or.cond54, label %._crit_edge, label %48

48:                                               ; preds = %44
  %49 = load i32, ptr %7, align 4, !tbaa !102
  %50 = and i32 %49, 512
  %.not47 = icmp eq i32 %50, 0
  br i1 %.not47, label %51, label %._crit_edge

51:                                               ; preds = %48
  %52 = load ptr, ptr %36, align 8, !tbaa !108
  %.not48 = icmp eq ptr %52, null
  br i1 %.not48, label %._crit_edge, label %53

53:                                               ; preds = %51
  %54 = getelementptr inbounds nuw i8, ptr %0, i64 8
  %55 = load ptr, ptr %54, align 8, !tbaa !37
  %56 = getelementptr inbounds nuw i8, ptr %55, i64 24
  %57 = getelementptr inbounds nuw i8, ptr %2, i64 24
  tail call void (i32, ptr, ...) @zend_error_noreturn(i32 noundef 64, ptr noundef nonnull @.str.4, ptr noundef nonnull %56, ptr noundef nonnull %57) #19
  unreachable

._crit_edge:                                      ; preds = %44, %51, %48
  %58 = and i32 %46, 64
  %.not49 = icmp eq i32 %58, 0
  %spec.select = select i1 %.not49, i8 %.052, i8 0
  br label %59

59:                                               ; preds = %._crit_edge, %39
  %.1 = phi i8 [ %.052, %39 ], [ %spec.select, %._crit_edge ]
  br i1 %41, label %39, label %37

60:                                               ; preds = %37
  %61 = getelementptr inbounds nuw i8, ptr %0, i64 8
  %62 = load ptr, ptr %61, align 8, !tbaa !37
  %63 = getelementptr inbounds nuw i8, ptr %62, i64 24
  %64 = getelementptr inbounds nuw i8, ptr %2, i64 24
  tail call void (i32, ptr, ...) @zend_error_noreturn(i32 noundef 64, ptr noundef nonnull @.str.5, ptr noundef nonnull %63, ptr noundef nonnull %64) #19
  unreachable

65:                                               ; preds = %37
  %66 = load i32, ptr %7, align 4, !tbaa !102
  %67 = and i32 %66, 512
  %.not40 = icmp eq i32 %67, 0
  %68 = and i32 %66, 7168
  %.not41 = icmp eq i32 %68, 0
  %or.cond = or i1 %.not40, %.not41
  br i1 %or.cond, label %79, label %69

69:                                               ; preds = %65
  %70 = load ptr, ptr %35, align 8, !tbaa !108
  %.not42 = icmp eq ptr %70, null
  br i1 %.not42, label %73, label %71

71:                                               ; preds = %69
  %72 = load ptr, ptr %36, align 8, !tbaa !108
  %.not43 = icmp eq ptr %72, null
  br i1 %.not43, label %73, label %79

73:                                               ; preds = %71, %69
  %74 = phi ptr [ @.str.7, %71 ], [ @.str.6, %69 ]
  %75 = getelementptr inbounds nuw i8, ptr %0, i64 8
  %76 = load ptr, ptr %75, align 8, !tbaa !37
  %77 = getelementptr inbounds nuw i8, ptr %76, i64 24
  %78 = getelementptr inbounds nuw i8, ptr %2, i64 24
  tail call void (i32, ptr, ...) @zend_error_noreturn(i32 noundef 64, ptr noundef nonnull @.str.8, ptr noundef nonnull %74, ptr noundef nonnull %77, ptr noundef nonnull %78) #19
  unreachable

79:                                               ; preds = %65, %71, %3
  ret void
}